; ModuleID = 'source-C-CXX/41/1433.cpp'
source_filename = "source-C-CXX/41/1433.cpp"
target datalayout = "e-m:e-p270:32:32-p271:32:32-p272:64:64-i64:64-f80:128-n8:16:32:64-S128"
target triple = "x86_64-pc-linux-gnu"

%"class.std::ios_base::Init" = type { i8 }
%"class.std::basic_istream" = type { i32 (...)**, i64, %"class.std::basic_ios" }
%"class.std::basic_ios" = type { %"class.std::ios_base", %"class.std::basic_ostream"*, i8, i8, %"class.std::basic_streambuf"*, %"class.std::ctype"*, %"class.std::num_put"*, %"class.std::num_get"* }
%"class.std::ios_base" = type { i32 (...)**, i64, i64, i32, i32, i32, %"struct.std::ios_base::_Callback_list"*, %"struct.std::ios_base::_Words", [8 x %"struct.std::ios_base::_Words"], i32, %"struct.std::ios_base::_Words"*, %"class.std::locale" }
%"struct.std::ios_base::_Callback_list" = type { %"struct.std::ios_base::_Callback_list"*, void (i32, %"class.std::ios_base"*, i32)*, i32, i32 }
%"struct.std::ios_base::_Words" = type { i8*, i64 }
%"class.std::locale" = type { %"class.std::locale::_Impl"* }
%"class.std::locale::_Impl" = type { i32, %"class.std::locale::facet"**, i64, %"class.std::locale::facet"**, i8** }
%"class.std::locale::facet" = type <{ i32 (...)**, i32, [4 x i8] }>
%"class.std::basic_ostream" = type { i32 (...)**, %"class.std::basic_ios" }
%"class.std::basic_streambuf" = type { i32 (...)**, i8*, i8*, i8*, i8*, i8*, i8*, %"class.std::locale" }
%"class.std::ctype" = type <{ %"class.std::locale::facet.base", [4 x i8], %struct.__locale_struct*, i8, [7 x i8], i32*, i32*, i16*, i8, [256 x i8], [256 x i8], i8, [6 x i8] }>
%"class.std::locale::facet.base" = type <{ i32 (...)**, i32 }>
%struct.__locale_struct = type { [13 x %struct.__locale_data*], i16*, i32*, i32*, [13 x i8*] }
%struct.__locale_data = type opaque
%"class.std::num_put" = type { %"class.std::locale::facet.base", [4 x i8] }
%"class.std::num_get" = type { %"class.std::locale::facet.base", [4 x i8] }

@_ZStL8__ioinit = internal global %"class.std::ios_base::Init" zeroinitializer, align 1
@__dso_handle = external hidden global i8
@_ZSt3cin = external global %"class.std::basic_istream", align 8
@_ZSt4cout = external global %"class.std::basic_ostream", align 8
@.str = private unnamed_addr constant [2 x i8] c" \00", align 1
@llvm.global_ctors = appending global [1 x { i32, void ()*, i8* }] [{ i32, void ()*, i8* } { i32 65535, void ()* @_GLOBAL__sub_I_1433.cpp, i8* null }]

declare void @_ZNSt8ios_base4InitC1Ev(%"class.std::ios_base::Init"* nonnull align 1 dereferenceable(1)) unnamed_addr #0

; Function Attrs: nounwind
declare void @_ZNSt8ios_base4InitD1Ev(%"class.std::ios_base::Init"* nonnull align 1 dereferenceable(1)) unnamed_addr #1

; Function Attrs: nofree nounwind
declare i32 @__cxa_atexit(void (i8*)*, i8*, i8*) local_unnamed_addr #2

; Function Attrs: mustprogress norecurse sspstrong uwtable
define dso_local i32 @main() local_unnamed_addr #3 {
  %1 = alloca i32, align 4
  %2 = alloca i32, align 4
  %3 = bitcast i32* %1 to i8*
  call void @llvm.lifetime.start.p0i8(i64 4, i8* nonnull %3) #7
  %4 = bitcast i32* %2 to i8*
  call void @llvm.lifetime.start.p0i8(i64 4, i8* nonnull %4) #7
  %5 = call nonnull align 8 dereferenceable(16) %"class.std::basic_istream"* @_ZNSirsERi(%"class.std::basic_istream"* nonnull align 8 dereferenceable(16) @_ZSt3cin, i32* nonnull align 4 dereferenceable(4) %1)
  %6 = load i32, i32* %1, align 4, !tbaa !5
  %7 = zext i32 %6 to i64
  %8 = call i8* @llvm.stacksave()
  %9 = alloca i32, i64 %7, align 16
  %10 = load i32, i32* %1, align 4, !tbaa !5
  %11 = icmp sgt i32 %10, 0
  br i1 %11, label %12, label %20

12:                                               ; preds = %0, %12
  %13 = phi i64 [ %16, %12 ], [ 0, %0 ]
  %14 = getelementptr inbounds i32, i32* %9, i64 %13
  %15 = call nonnull align 8 dereferenceable(16) %"class.std::basic_istream"* @_ZNSirsERi(%"class.std::basic_istream"* nonnull align 8 dereferenceable(16) @_ZSt3cin, i32* nonnull align 4 dereferenceable(4) %14)
  %16 = add nuw nsw i64 %13, 1
  %17 = load i32, i32* %1, align 4, !tbaa !5
  %18 = sext i32 %17 to i64
  %19 = icmp slt i64 %16, %18
  br i1 %19, label %12, label %20, !llvm.loop !9

20:                                               ; preds = %12, %0
  %21 = call nonnull align 8 dereferenceable(16) %"class.std::basic_istream"* @_ZNSirsERi(%"class.std::basic_istream"* nonnull align 8 dereferenceable(16) @_ZSt3cin, i32* nonnull align 4 dereferenceable(4) %2)
  %22 = load i32, i32* %1, align 4, !tbaa !5
  %23 = load i32, i32* %2, align 4
  %24 = icmp sgt i32 %22, 0
  br i1 %24, label %25, label %61

25:                                               ; preds = %20
  %26 = zext i32 %22 to i64
  %27 = and i64 %26, 1
  %28 = icmp eq i32 %22, 1
  br i1 %28, label %48, label %29

29:                                               ; preds = %25
  %30 = and i64 %26, 4294967294
  br label %31

31:                                               ; preds = %84, %29
  %32 = phi i64 [ 0, %29 ], [ %86, %84 ]
  %33 = phi i32 [ 0, %29 ], [ %85, %84 ]
  %34 = phi i64 [ %30, %29 ], [ %87, %84 ]
  %35 = getelementptr inbounds i32, i32* %9, i64 %32
  %36 = load i32, i32* %35, align 8, !tbaa !5
  %37 = icmp eq i32 %36, %23
  br i1 %37, label %42, label %38

38:                                               ; preds = %31
  %39 = sext i32 %33 to i64
  %40 = getelementptr inbounds i32, i32* %9, i64 %39
  store i32 %36, i32* %40, align 4, !tbaa !5
  %41 = add nsw i32 %33, 1
  br label %42

42:                                               ; preds = %31, %38
  %43 = phi i32 [ %41, %38 ], [ %33, %31 ]
  %44 = or i64 %32, 1
  %45 = getelementptr inbounds i32, i32* %9, i64 %44
  %46 = load i32, i32* %45, align 4, !tbaa !5
  %47 = icmp eq i32 %46, %23
  br i1 %47, label %84, label %80

48:                                               ; preds = %84, %25
  %49 = phi i32 [ undef, %25 ], [ %85, %84 ]
  %50 = phi i64 [ 0, %25 ], [ %86, %84 ]
  %51 = phi i32 [ 0, %25 ], [ %85, %84 ]
  %52 = icmp eq i64 %27, 0
  br i1 %52, label %61, label %53

53:                                               ; preds = %48
  %54 = getelementptr inbounds i32, i32* %9, i64 %50
  %55 = load i32, i32* %54, align 4, !tbaa !5
  %56 = icmp eq i32 %55, %23
  br i1 %56, label %61, label %57

57:                                               ; preds = %53
  %58 = sext i32 %51 to i64
  %59 = getelementptr inbounds i32, i32* %9, i64 %58
  store i32 %55, i32* %59, align 4, !tbaa !5
  %60 = add nsw i32 %51, 1
  br label %61

61:                                               ; preds = %48, %53, %57, %20
  %62 = phi i32 [ 0, %20 ], [ %49, %48 ], [ %60, %57 ], [ %51, %53 ]
  %63 = load i32, i32* %9, align 16, !tbaa !5
  %64 = icmp eq i32 %63, %23
  br i1 %64, label %67, label %65

65:                                               ; preds = %61
  %66 = call nonnull align 8 dereferenceable(8) %"class.std::basic_ostream"* @_ZNSolsEi(%"class.std::basic_ostream"* nonnull align 8 dereferenceable(8) @_ZSt4cout, i32 %63)
  br label %67

67:                                               ; preds = %65, %61
  %68 = icmp sgt i32 %62, 1
  br i1 %68, label %69, label %79

69:                                               ; preds = %67
  %70 = zext i32 %62 to i64
  br label %71

71:                                               ; preds = %69, %71
  %72 = phi i64 [ 1, %69 ], [ %77, %71 ]
  %73 = call nonnull align 8 dereferenceable(8) %"class.std::basic_ostream"* @_ZSt16__ostream_insertIcSt11char_traitsIcEERSt13basic_ostreamIT_T0_ES6_PKS3_l(%"class.std::basic_ostream"* nonnull align 8 dereferenceable(8) @_ZSt4cout, i8* nonnull getelementptr inbounds ([2 x i8], [2 x i8]* @.str, i64 0, i64 0), i64 1)
  %74 = getelementptr inbounds i32, i32* %9, i64 %72
  %75 = load i32, i32* %74, align 4, !tbaa !5
  %76 = call nonnull align 8 dereferenceable(8) %"class.std::basic_ostream"* @_ZNSolsEi(%"class.std::basic_ostream"* nonnull align 8 dereferenceable(8) @_ZSt4cout, i32 %75)
  %77 = add nuw nsw i64 %72, 1
  %78 = icmp eq i64 %77, %70
  br i1 %78, label %79, label %71, !llvm.loop !11

79:                                               ; preds = %71, %67
  call void @llvm.stackrestore(i8* %8)
  call void @llvm.lifetime.end.p0i8(i64 4, i8* nonnull %4) #7
  call void @llvm.lifetime.end.p0i8(i64 4, i8* nonnull %3) #7
  ret i32 0

80:                                               ; preds = %42
  %81 = sext i32 %43 to i64
  %82 = getelementptr inbounds i32, i32* %9, i64 %81
  store i32 %46, i32* %82, align 4, !tbaa !5
  %83 = add nsw i32 %43, 1
  br label %84

84:                                               ; preds = %80, %42
  %85 = phi i32 [ %83, %80 ], [ %43, %42 ]
  %86 = add nuw nsw i64 %32, 2
  %87 = add i64 %34, -2
  %88 = icmp eq i64 %87, 0
  br i1 %88, label %48, label %31, !llvm.loop !12
}

; Function Attrs: argmemonly mustprogress nofree nosync nounwind willreturn
declare void @llvm.lifetime.start.p0i8(i64 immarg, i8* nocapture) #4

declare nonnull align 8 dereferenceable(16) %"class.std::basic_istream"* @_ZNSirsERi(%"class.std::basic_istream"* nonnull align 8 dereferenceable(16), i32* nonnull align 4 dereferenceable(4)) local_unnamed_addr #0

; Function Attrs: mustprogress nofree nosync nounwind willreturn
declare i8* @llvm.stacksave() #5

declare nonnull align 8 dereferenceable(8) %"class.std::basic_ostream"* @_ZNSolsEi(%"class.std::basic_ostream"* nonnull align 8 dereferenceable(8), i32) local_unnamed_addr #0

; Function Attrs: mustprogress nofree nosync nounwind willreturn
declare void @llvm.stackrestore(i8*) #5

; Function Attrs: argmemonly mustprogress nofree nosync nounwind willreturn
declare void @llvm.lifetime.end.p0i8(i64 immarg, i8* nocapture) #4

declare nonnull align 8 dereferenceable(8) %"class.std::basic_ostream"* @_ZSt16__ostream_insertIcSt11char_traitsIcEERSt13basic_ostreamIT_T0_ES6_PKS3_l(%"class.std::basic_ostream"* nonnull align 8 dereferenceable(8), i8*, i64) local_unnamed_addr #0

; Function Attrs: sspstrong uwtable
define internal void @_GLOBAL__sub_I_1433.cpp() #6 section ".text.startup" {
  tail call void @_ZNSt8ios_base4InitC1Ev(%"class.std::ios_base::Init"* nonnull align 1 dereferenceable(1) @_ZStL8__ioinit)
  %1 = tail call i32 @__cxa_atexit(void (i8*)* bitcast (void (%"class.std::ios_base::Init"*)* @_ZNSt8ios_base4InitD1Ev to void (i8*)*), i8* getelementptr inbounds (%"class.std::ios_base::Init", %"class.std::ios_base::Init"* @_ZStL8__ioinit, i64 0, i32 0), i8* nonnull @__dso_handle) #7
  ret void
}


!llvm.module.flags = !{!0, !1, !2, !3}
!llvm.ident = !{!4}

!0 = !{i32 1, !"wchar_size", i32 4}
!1 = !{i32 7, !"PIC Level", i32 2}
!2 = !{i32 7, !"PIE Level", i32 2}
!3 = !{i32 7, !"uwtable", i32 1}
!4 = !{!"clang version 13.0.0"}
!5 = !{!6, !6, i64 0}
!6 = !{!"int", !7, i64 0}
!7 = !{!"omnipotent char", !8, i64 0}
!8 = !{!"Simple C++ TBAA"}
!9 = distinct !{!9, !10}
!10 = !{!"llvm.loop.mustprogress"}
!11 = distinct !{!11, !10}
!12 = distinct !{!12, !10}
